; Function Attrs: mustprogress nofree norecurse nosync nounwind willreturn memory(read, inaccessiblemem: none) uwtable
define hidden noundef range(i64 -1152921504606846976, 1152921504606846976) i64 @_ZNK4cvc58internal6theory14RepSetIterator10domainSizeEm(ptr noundef nonnull readonly align 8 captures(none) dereferenceable(169) %0, i64 noundef %1) local_unnamed_addr #5 align 2 {
  %3 = getelementptr inbounds nuw i8, ptr %0, i64 144
  %4 = load ptr, ptr %3, align 8, !tbaa !63
  %5 = getelementptr inbounds nuw i64, ptr %4, i64 %1
  %6 = load i64, ptr %5, align 8, !tbaa !64
  %7 = getelementptr inbounds nuw i8, ptr %0, i64 88
  %8 = load ptr, ptr %7, align 8, !tbaa !45
  %9 = getelementptr inbounds nuw %"class.std::vector.20", ptr %8, i64 %6
  %10 = getelementptr inbounds nuw i8, ptr %9, i64 8
  %11 = load ptr, ptr %10, align 8, !tbaa !50
  %12 = load ptr, ptr %9, align 8, !tbaa !47
  %13 = ptrtoint ptr %11 to i64
  %14 = ptrtoint ptr %12 to i64
  %15 = sub i64 %13, %14
  %16 = ashr exact i64 %15, 3
  ret i64 %16
}